; ModuleID = '5/510.c'
source_filename = "5/510.c"
target datalayout = "e-m:e-p270:32:32-p271:32:32-p272:64:64-i64:64-f80:128-n8:16:32:64-S128"
target triple = "x86_64-pc-linux-gnu"

@.str = private unnamed_addr constant [4 x i8] c"%lf\00", align 1
@.str.1 = private unnamed_addr constant [3 x i8] c"%s\00", align 1
@.str.2 = private unnamed_addr constant [5 x i8] c"yes\0A\00", align 1
@.str.3 = private unnamed_addr constant [4 x i8] c"no\0A\00", align 1
@.str.4 = private unnamed_addr constant [7 x i8] c"error\0A\00", align 1

; Function Attrs: noinline nounwind uwtable
define dso_local i32 @main() #0 {
  %1 = alloca i32, align 4
  %2 = alloca i32, align 4
  %3 = alloca i32, align 4
  %4 = alloca i32, align 4
  %5 = alloca i32, align 4
  %6 = alloca i32, align 4
  %7 = alloca i32, align 4
  %8 = alloca double, align 8
  %9 = alloca double, align 8
  %10 = alloca [2 x [502 x i8]], align 16
  store i32 0, i32* %1, align 4
  store i32 0, i32* %3, align 4
  store i32 1, i32* %7, align 4
  %11 = call i32 (i8*, ...) @__isoc99_scanf(i8* getelementptr inbounds ([4 x i8], [4 x i8]* @.str, i64 0, i64 0), double* %8)
  store i32 0, i32* %2, align 4
  br label %12

12:                                               ; preds = %21, %0
  %13 = load i32, i32* %2, align 4
  %14 = icmp slt i32 %13, 2
  br i1 %14, label %15, label %24

15:                                               ; preds = %12
  %16 = load i32, i32* %2, align 4
  %17 = sext i32 %16 to i64
  %18 = getelementptr inbounds [2 x [502 x i8]], [2 x [502 x i8]]* %10, i64 0, i64 %17
  %19 = getelementptr inbounds [502 x i8], [502 x i8]* %18, i64 0, i64 0
  %20 = call i32 (i8*, ...) @__isoc99_scanf(i8* getelementptr inbounds ([3 x i8], [3 x i8]* @.str.1, i64 0, i64 0), i8* %19)
  br label %21

21:                                               ; preds = %15
  %22 = load i32, i32* %2, align 4
  %23 = add nsw i32 %22, 1
  store i32 %23, i32* %2, align 4
  br label %12

24:                                               ; preds = %12
  %25 = getelementptr inbounds [2 x [502 x i8]], [2 x [502 x i8]]* %10, i64 0, i64 1
  %26 = getelementptr inbounds [502 x i8], [502 x i8]* %25, i64 0, i64 0
  %27 = call i64 @strlen(i8* %26) #3
  %28 = trunc i64 %27 to i32
  store i32 %28, i32* %5, align 4
  %29 = getelementptr inbounds [2 x [502 x i8]], [2 x [502 x i8]]* %10, i64 0, i64 0
  %30 = getelementptr inbounds [502 x i8], [502 x i8]* %29, i64 0, i64 0
  %31 = call i64 @strlen(i8* %30) #3
  %32 = trunc i64 %31 to i32
  store i32 %32, i32* %6, align 4
  %33 = load i32, i32* %5, align 4
  %34 = load i32, i32* %6, align 4
  %35 = icmp ne i32 %33, %34
  br i1 %35, label %36, label %37

36:                                               ; preds = %24
  store i32 0, i32* %7, align 4
  br label %37

37:                                               ; preds = %36, %24
  %38 = load i32, i32* %7, align 4
  %39 = icmp eq i32 %38, 1
  br i1 %39, label %40, label %104

40:                                               ; preds = %37
  store i32 0, i32* %2, align 4
  br label %41

41:                                               ; preds = %100, %40
  %42 = load i32, i32* %2, align 4
  %43 = icmp slt i32 %42, 2
  br i1 %43, label %44, label %103

44:                                               ; preds = %41
  store i32 0, i32* %4, align 4
  br label %45

45:                                               ; preds = %96, %44
  %46 = load i32, i32* %2, align 4
  %47 = sext i32 %46 to i64
  %48 = getelementptr inbounds [2 x [502 x i8]], [2 x [502 x i8]]* %10, i64 0, i64 %47
  %49 = load i32, i32* %4, align 4
  %50 = sext i32 %49 to i64
  %51 = getelementptr inbounds [502 x i8], [502 x i8]* %48, i64 0, i64 %50
  %52 = load i8, i8* %51, align 1
  %53 = icmp ne i8 %52, 0
  br i1 %53, label %54, label %99

54:                                               ; preds = %45
  %55 = load i32, i32* %2, align 4
  %56 = sext i32 %55 to i64
  %57 = getelementptr inbounds [2 x [502 x i8]], [2 x [502 x i8]]* %10, i64 0, i64 %56
  %58 = load i32, i32* %4, align 4
  %59 = sext i32 %58 to i64
  %60 = getelementptr inbounds [502 x i8], [502 x i8]* %57, i64 0, i64 %59
  %61 = load i8, i8* %60, align 1
  %62 = sext i8 %61 to i32
  %63 = icmp ne i32 %62, 65
  br i1 %63, label %64, label %95

64:                                               ; preds = %54
  %65 = load i32, i32* %2, align 4
  %66 = sext i32 %65 to i64
  %67 = getelementptr inbounds [2 x [502 x i8]], [2 x [502 x i8]]* %10, i64 0, i64 %66
  %68 = load i32, i32* %4, align 4
  %69 = sext i32 %68 to i64
  %70 = getelementptr inbounds [502 x i8], [502 x i8]* %67, i64 0, i64 %69
  %71 = load i8, i8* %70, align 1
  %72 = sext i8 %71 to i32
  %73 = icmp ne i32 %72, 71
  br i1 %73, label %74, label %95

74:                                               ; preds = %64
  %75 = load i32, i32* %2, align 4
  %76 = sext i32 %75 to i64
  %77 = getelementptr inbounds [2 x [502 x i8]], [2 x [502 x i8]]* %10, i64 0, i64 %76
  %78 = load i32, i32* %4, align 4
  %79 = sext i32 %78 to i64
  %80 = getelementptr inbounds [502 x i8], [502 x i8]* %77, i64 0, i64 %79
  %81 = load i8, i8* %80, align 1
  %82 = sext i8 %81 to i32
  %83 = icmp ne i32 %82, 67
  br i1 %83, label %84, label %95

84:                                               ; preds = %74
  %85 = load i32, i32* %2, align 4
  %86 = sext i32 %85 to i64
  %87 = getelementptr inbounds [2 x [502 x i8]], [2 x [502 x i8]]* %10, i64 0, i64 %86
  %88 = load i32, i32* %4, align 4
  %89 = sext i32 %88 to i64
  %90 = getelementptr inbounds [502 x i8], [502 x i8]* %87, i64 0, i64 %89
  %91 = load i8, i8* %90, align 1
  %92 = sext i8 %91 to i32
  %93 = icmp ne i32 %92, 84
  br i1 %93, label %94, label %95

94:                                               ; preds = %84
  store i32 0, i32* %7, align 4
  br label %95

95:                                               ; preds = %94, %84, %74, %64, %54
  br label %96

96:                                               ; preds = %95
  %97 = load i32, i32* %4, align 4
  %98 = add nsw i32 %97, 1
  store i32 %98, i32* %4, align 4
  br label %45

99:                                               ; preds = %45
  br label %100

100:                                              ; preds = %99
  %101 = load i32, i32* %2, align 4
  %102 = add nsw i32 %101, 1
  store i32 %102, i32* %2, align 4
  br label %41

103:                                              ; preds = %41
  br label %104

104:                                              ; preds = %103, %37
  store i32 0, i32* %4, align 4
  br label %105

105:                                              ; preds = %130, %104
  %106 = getelementptr inbounds [2 x [502 x i8]], [2 x [502 x i8]]* %10, i64 0, i64 0
  %107 = load i32, i32* %4, align 4
  %108 = sext i32 %107 to i64
  %109 = getelementptr inbounds [502 x i8], [502 x i8]* %106, i64 0, i64 %108
  %110 = load i8, i8* %109, align 1
  %111 = icmp ne i8 %110, 0
  br i1 %111, label %112, label %133

112:                                              ; preds = %105
  %113 = getelementptr inbounds [2 x [502 x i8]], [2 x [502 x i8]]* %10, i64 0, i64 0
  %114 = load i32, i32* %4, align 4
  %115 = sext i32 %114 to i64
  %116 = getelementptr inbounds [502 x i8], [502 x i8]* %113, i64 0, i64 %115
  %117 = load i8, i8* %116, align 1
  %118 = sext i8 %117 to i32
  %119 = getelementptr inbounds [2 x [502 x i8]], [2 x [502 x i8]]* %10, i64 0, i64 1
  %120 = load i32, i32* %4, align 4
  %121 = sext i32 %120 to i64
  %122 = getelementptr inbounds [502 x i8], [502 x i8]* %119, i64 0, i64 %121
  %123 = load i8, i8* %122, align 1
  %124 = sext i8 %123 to i32
  %125 = icmp eq i32 %118, %124
  br i1 %125, label %126, label %129

126:                                              ; preds = %112
  %127 = load i32, i32* %3, align 4
  %128 = add nsw i32 %127, 1
  store i32 %128, i32* %3, align 4
  br label %129

129:                                              ; preds = %126, %112
  br label %130

130:                                              ; preds = %129
  %131 = load i32, i32* %4, align 4
  %132 = add nsw i32 %131, 1
  store i32 %132, i32* %4, align 4
  br label %105

133:                                              ; preds = %105
  %134 = load i32, i32* %3, align 4
  %135 = sitofp i32 %134 to double
  %136 = fmul double 1.000000e+00, %135
  %137 = load i32, i32* %5, align 4
  %138 = sitofp i32 %137 to double
  %139 = fdiv double %136, %138
  store double %139, double* %9, align 8
  %140 = load i32, i32* %7, align 4
  %141 = icmp eq i32 %140, 1
  br i1 %141, label %142, label %151

142:                                              ; preds = %133
  %143 = load double, double* %9, align 8
  %144 = load double, double* %8, align 8
  %145 = fcmp ogt double %143, %144
  br i1 %145, label %146, label %148

146:                                              ; preds = %142
  %147 = call i32 (i8*, ...) @printf(i8* getelementptr inbounds ([5 x i8], [5 x i8]* @.str.2, i64 0, i64 0))
  br label %150

148:                                              ; preds = %142
  %149 = call i32 (i8*, ...) @printf(i8* getelementptr inbounds ([4 x i8], [4 x i8]* @.str.3, i64 0, i64 0))
  br label %150

150:                                              ; preds = %148, %146
  br label %153

151:                                              ; preds = %133
  %152 = call i32 (i8*, ...) @printf(i8* getelementptr inbounds ([7 x i8], [7 x i8]* @.str.4, i64 0, i64 0))
  br label %153

153:                                              ; preds = %151, %150
  ret i32 0
}

declare dso_local i32 @__isoc99_scanf(i8*, ...) #1

; Function Attrs: nounwind readonly
declare dso_local i64 @strlen(i8*) #2

declare dso_local i32 @printf(i8*, ...) #1


!llvm.module.flags = !{!0}
!llvm.ident = !{!1}

!0 = !{i32 1, !"wchar_size", i32 4}
!1 = !{!"clang version 10.0.0-4ubuntu1 "}
